target datalayout = "e-m:e-p270:32:32-p271:32:32-p272:64:64-i64:64-i128:128-f80:128-n8:16:32:64-S128"
target triple = "x86_64-pc-linux-gnu"

%struct._dcerpc_info = type { ptr, i32, i64, i8, i8, i8, i32, i32, i32, i32, i32, i32, i32, i32, ptr, ptr, ptr, ptr, %struct.anon }
%struct.anon = type { i8, ptr, ptr, ptr, i8 }

@hf_sysact_scmri_rmtunknid = internal global i32 0, align 4
@hf_sysact_scmri_authhint = internal global i32 0, align 4
@hf_sysact_scmri_oxid = internal global i32 0, align 4
@ett_dcom_rmtresp = internal global i32 0, align 4
@.str.182 = private unnamed_addr constant [12 x i8] c"RemoteReply\00", align 1
@.str.183 = private unnamed_addr constant [16 x i8] c"OxidBindingsPtr\00", align 1

; Function Attrs: null_pointer_is_valid sspstrong uwtable
define internal i32 @dissect_dcom_customREMOTE_REPLY_SCM_INFO(ptr noundef %0, i32 noundef %1, ptr noundef %2, ptr noundef %3, ptr noundef %4, ptr noundef %5) #0 {
  %7 = alloca i32, align 4
  %8 = alloca ptr, align 8
  %9 = alloca i32, align 4
  %10 = alloca ptr, align 8
  %11 = alloca ptr, align 8
  %12 = alloca ptr, align 8
  %13 = alloca ptr, align 8
  %14 = alloca ptr, align 8
  %15 = alloca ptr, align 8
  %16 = alloca i32, align 4
  %17 = alloca i32, align 4
  store ptr %0, ptr %8, align 8
  store i32 %1, ptr %9, align 4
  store ptr %2, ptr %10, align 8
  store ptr %3, ptr %11, align 8
  store ptr %4, ptr %12, align 8
  store ptr %5, ptr %13, align 8
  call void @llvm.lifetime.start.p0(i64 8, ptr %14) #5
  call void @llvm.lifetime.start.p0(i64 8, ptr %15) #5
  call void @llvm.lifetime.start.p0(i64 4, ptr %16) #5
  %18 = load ptr, ptr %12, align 8
  %19 = getelementptr inbounds nuw %struct._dcerpc_info, ptr %18, i32 0, i32 4
  %20 = load i8, ptr %19, align 1, !range !9, !noundef !10
  %21 = trunc i8 %20 to i1
  br i1 %21, label %22, label %24

22:                                               ; preds = %6
  %23 = load i32, ptr %9, align 4
  store i32 %23, ptr %7, align 4
  store i32 1, ptr %17, align 4
  br label %80

24:                                               ; preds = %6
  %25 = load ptr, ptr %11, align 8
  %26 = load ptr, ptr %8, align 8
  %27 = load i32, ptr %9, align 4
  %28 = load i32, ptr @ett_dcom_rmtresp, align 4
  %29 = call ptr @proto_tree_add_subtree(ptr noundef %25, ptr noundef %26, i32 noundef %27, i32 noundef 0, i32 noundef %28, ptr noundef %14, ptr noundef @.str.182)
  store ptr %29, ptr %15, align 8
  %30 = load i32, ptr %9, align 4
  store i32 %30, ptr %16, align 4
  %31 = load ptr, ptr %8, align 8
  %32 = load i32, ptr %9, align 4
  %33 = load ptr, ptr %10, align 8
  %34 = load ptr, ptr %15, align 8
  %35 = load ptr, ptr %12, align 8
  %36 = load ptr, ptr %13, align 8
  %37 = load i32, ptr @hf_sysact_scmri_oxid, align 4
  %38 = call i32 @dissect_ndr_duint32(ptr noundef %31, i32 noundef %32, ptr noundef %33, ptr noundef %34, ptr noundef %35, ptr noundef %36, i32 noundef %37, ptr noundef null)
  store i32 %38, ptr %9, align 4
  %39 = load ptr, ptr %8, align 8
  %40 = load i32, ptr %9, align 4
  %41 = load ptr, ptr %10, align 8
  %42 = load ptr, ptr %15, align 8
  %43 = load ptr, ptr %12, align 8
  %44 = load ptr, ptr %13, align 8
  %45 = call i32 @dissect_ndr_embedded_pointer(ptr noundef %39, i32 noundef %40, ptr noundef %41, ptr noundef %42, ptr noundef %43, ptr noundef %44, ptr noundef @dissect_dcom_OxidBindings, i32 noundef 2, ptr noundef @.str.183, i32 noundef -1)
  store i32 %45, ptr %9, align 4
  %46 = load ptr, ptr %8, align 8
  %47 = load i32, ptr %9, align 4
  %48 = load ptr, ptr %10, align 8
  %49 = load ptr, ptr %15, align 8
  %50 = load ptr, ptr %12, align 8
  %51 = load ptr, ptr %13, align 8
  %52 = load i32, ptr @hf_sysact_scmri_rmtunknid, align 4
  %53 = call i32 @dissect_dcom_UUID(ptr noundef %46, i32 noundef %47, ptr noundef %48, ptr noundef %49, ptr noundef %50, ptr noundef %51, i32 noundef %52, ptr noundef null)
  store i32 %53, ptr %9, align 4
  %54 = load ptr, ptr %8, align 8
  %55 = load i32, ptr %9, align 4
  %56 = load ptr, ptr %10, align 8
  %57 = load ptr, ptr %15, align 8
  %58 = load ptr, ptr %12, align 8
  %59 = load ptr, ptr %13, align 8
  %60 = load i32, ptr @hf_sysact_scmri_authhint, align 4
  %61 = call i32 @dissect_ndr_uint32(ptr noundef %54, i32 noundef %55, ptr noundef %56, ptr noundef %57, ptr noundef %58, ptr noundef %59, i32 noundef %60, ptr noundef null)
  store i32 %61, ptr %9, align 4
  %62 = load ptr, ptr %8, align 8
  %63 = load i32, ptr %9, align 4
  %64 = load ptr, ptr %10, align 8
  %65 = load ptr, ptr %15, align 8
  %66 = load ptr, ptr %12, align 8
  %67 = load ptr, ptr %13, align 8
  %68 = call i32 @dissect_dcom_COMVERSION(ptr noundef %62, i32 noundef %63, ptr noundef %64, ptr noundef %65, ptr noundef %66, ptr noundef %67, ptr noundef null, ptr noundef null)
  store i32 %68, ptr %9, align 4
  %69 = load ptr, ptr %10, align 8
  %70 = load ptr, ptr %8, align 8
  %71 = load i32, ptr %9, align 4
  %72 = load ptr, ptr %12, align 8
  %73 = load ptr, ptr %13, align 8
  %74 = call i32 @dissect_deferred_pointers(ptr noundef %69, ptr noundef %70, i32 noundef %71, ptr noundef %72, ptr noundef %73)
  store i32 %74, ptr %9, align 4
  %75 = load ptr, ptr %14, align 8
  %76 = load i32, ptr %9, align 4
  %77 = load i32, ptr %16, align 4
  %78 = sub i32 %76, %77
  call void @proto_item_set_len(ptr noundef %75, i32 noundef %78)
  %79 = load i32, ptr %9, align 4
  store i32 %79, ptr %7, align 4
  store i32 1, ptr %17, align 4
  br label %80

80:                                               ; preds = %24, %22
  call void @llvm.lifetime.end.p0(i64 4, ptr %16) #5
  call void @llvm.lifetime.end.p0(i64 8, ptr %15) #5
  call void @llvm.lifetime.end.p0(i64 8, ptr %14) #5
  %81 = load i32, ptr %7, align 4
  ret i32 %81
}