; Function Attrs: null_pointer_is_valid sspstrong uwtable
define internal i32 @dissect_dcom_customREMOTE_REPLY_SCM_INFO(ptr noundef %0, i32 noundef %1, ptr noundef %2, ptr noundef %3, ptr noundef %4, ptr noundef %5) #0 {
  %7 = alloca ptr, align 8
  call void @llvm.lifetime.start.p0(i64 8, ptr nonnull %7) #6
  %8 = getelementptr inbounds nuw i8, ptr %4, i64 25
  %9 = load i8, ptr %8, align 1, !range !9, !noundef !10
  %10 = trunc nuw i8 %9 to i1
  br i1 %10, label %25, label %11

11:                                               ; preds = %6
  %12 = load i32, ptr @ett_dcom_rmtresp, align 4
  %13 = call ptr @proto_tree_add_subtree(ptr noundef %3, ptr noundef %0, i32 noundef %1, i32 noundef 0, i32 noundef %12, ptr noundef nonnull %7, ptr noundef nonnull @.str.182)
  %14 = load i32, ptr @hf_sysact_scmri_oxid, align 4
  %15 = call i32 @dissect_ndr_duint32(ptr noundef %0, i32 noundef %1, ptr noundef %2, ptr noundef %13, ptr noundef %4, ptr noundef %5, i32 noundef %14, ptr noundef null)
  %16 = call i32 @dissect_ndr_embedded_pointer(ptr noundef %0, i32 noundef %15, ptr noundef %2, ptr noundef %13, ptr noundef %4, ptr noundef %5, ptr noundef nonnull @dissect_dcom_OxidBindings, i32 noundef 2, ptr noundef nonnull @.str.183, i32 noundef -1)
  %17 = load i32, ptr @hf_sysact_scmri_rmtunknid, align 4
  %18 = call i32 @dissect_dcom_UUID(ptr noundef %0, i32 noundef %16, ptr noundef %2, ptr noundef %13, ptr noundef %4, ptr noundef %5, i32 noundef %17, ptr noundef null)
  %19 = load i32, ptr @hf_sysact_scmri_authhint, align 4
  %20 = call i32 @dissect_ndr_uint32(ptr noundef %0, i32 noundef %18, ptr noundef %2, ptr noundef %13, ptr noundef %4, ptr noundef %5, i32 noundef %19, ptr noundef null)
  %21 = call i32 @dissect_dcom_COMVERSION(ptr noundef %0, i32 noundef %20, ptr noundef %2, ptr noundef %13, ptr noundef %4, ptr noundef %5, ptr noundef null, ptr noundef null)
  %22 = call i32 @dissect_deferred_pointers(ptr noundef %2, ptr noundef %0, i32 noundef %21, ptr noundef %4, ptr noundef %5)
  %23 = load ptr, ptr %7, align 8
  %24 = sub i32 %22, %1
  call void @proto_item_set_len(ptr noundef %23, i32 noundef %24)
  br label %25

25:                                               ; preds = %6, %11
  %.0 = phi i32 [ %22, %11 ], [ %1, %6 ]
  call void @llvm.lifetime.end.p0(i64 8, ptr nonnull %7) #6
  ret i32 %.0
}